target datalayout = "e-m:e-p270:32:32-p271:32:32-p272:64:64-i64:64-i128:128-f80:128-n8:16:32:64-S128"
target triple = "x86_64-pc-linux-gnu"

%"class.std::__cxx11::basic_string" = type { %"struct.std::__cxx11::basic_string<char>::_Alloc_hider", i64, %union.anon }
%"struct.std::__cxx11::basic_string<char>::_Alloc_hider" = type { ptr }
%union.anon = type { i64, [8 x i8] }
%"class.std::allocator.0" = type { i8 }
%"struct.duckdb_apache::thrift::protocol::TOutputRecursionTracker" = type { ptr }
%"class.duckdb_apache::thrift::protocol::TProtocolException" = type <{ %"class.duckdb_apache::thrift::TException", i32, [4 x i8] }>
%"class.duckdb_apache::thrift::TException" = type { %"class.std::exception", %"class.std::__cxx11::basic_string" }
%"class.std::exception" = type { ptr }
%"class.duckdb_apache::thrift::protocol::TProtocol" = type <{ ptr, %"class.std::shared_ptr", i32, i32, i32, [4 x i8] }>
%"class.std::shared_ptr" = type { %"class.std::__shared_ptr" }
%"class.std::__shared_ptr" = type { ptr, %"class.std::__shared_count" }
%"class.std::__shared_count" = type { ptr }

@.str.94 = private unnamed_addr constant [9 x i8] c"UUIDType\00", align 1
@_ZTVSt9exception = available_externally unnamed_addr constant { [5 x ptr] } { [5 x ptr] [ptr null, ptr @_ZTISt9exception, ptr @_ZNSt9exceptionD1Ev, ptr @_ZNSt9exceptionD0Ev, ptr @_ZNKSt9exception4whatEv] }, align 8

; Function Attrs: mustprogress nounwind uwtable
define linkonce_odr void @_ZNSt15__new_allocatorIcEC2ERKS0_(ptr noundef nonnull align 1 dereferenceable(1) %0, ptr noundef nonnull align 1 dereferenceable(1) %1) unnamed_addr #1 comdat align 2 {
  %3 = alloca ptr, align 8
  %4 = alloca ptr, align 8
  store ptr %0, ptr %3, align 8, !tbaa !42
  store ptr %1, ptr %4, align 8, !tbaa !42
  ret void
}

; Function Attrs: mustprogress nounwind uwtable
define linkonce_odr void @_ZNSt11char_traitsIcE6assignERcRKc(ptr noundef nonnull align 1 dereferenceable(1) %0, ptr noundef nonnull align 1 dereferenceable(1) %1) #1 comdat align 2 {
  %3 = alloca ptr, align 8
  %4 = alloca ptr, align 8
  store ptr %0, ptr %3, align 8, !tbaa !35
  store ptr %1, ptr %4, align 8, !tbaa !35
  %5 = load ptr, ptr %4, align 8, !tbaa !35
  %6 = load i8, ptr %5, align 1, !tbaa !112
  %7 = load ptr, ptr %3, align 8, !tbaa !35
  store i8 %6, ptr %7, align 1, !tbaa !112
  ret void
}

; Function Attrs: mustprogress nounwind uwtable
define available_externally noundef ptr @_ZNKSt7__cxx1112basic_stringIcSt11char_traitsIcESaIcEE7_M_dataEv(ptr noundef nonnull align 8 dereferenceable(32) %0) #1 align 2 {
  %2 = alloca ptr, align 8
  store ptr %0, ptr %2, align 8, !tbaa !40
  %3 = load ptr, ptr %2, align 8
  %4 = getelementptr inbounds nuw %"class.std::__cxx11::basic_string", ptr %3, i32 0, i32 0
  %5 = getelementptr inbounds nuw %"struct.std::__cxx11::basic_string<char>::_Alloc_hider", ptr %4, i32 0, i32 0
  %6 = load ptr, ptr %5, align 8, !tbaa !712
  ret ptr %6
}

; Function Attrs: mustprogress nounwind uwtable
define available_externally void @_ZNSt7__cxx1112basic_stringIcSt11char_traitsIcESaIcEE9_M_lengthEm(ptr noundef nonnull align 8 dereferenceable(32) %0, i64 noundef %1) #1 align 2 {
  %3 = alloca ptr, align 8
  %4 = alloca i64, align 8
  store ptr %0, ptr %3, align 8, !tbaa !40
  store i64 %1, ptr %4, align 8, !tbaa !78
  %5 = load ptr, ptr %3, align 8
  %6 = load i64, ptr %4, align 8, !tbaa !78
  %7 = getelementptr inbounds nuw %"class.std::__cxx11::basic_string", ptr %5, i32 0, i32 1
  store i64 %6, ptr %7, align 8, !tbaa !739
  ret void
}

; Function Attrs: mustprogress nounwind uwtable
define available_externally void @_ZNSaIcEC2ERKS_(ptr noundef nonnull align 1 dereferenceable(1) %0, ptr noundef nonnull align 1 dereferenceable(1) %1) unnamed_addr #1 align 2 {
  %3 = alloca ptr, align 8
  %4 = alloca ptr, align 8
  store ptr %0, ptr %3, align 8, !tbaa !38
  store ptr %1, ptr %4, align 8, !tbaa !38
  %5 = load ptr, ptr %3, align 8
  %6 = load ptr, ptr %4, align 8, !tbaa !38
  call void @_ZNSt15__new_allocatorIcEC2ERKS0_(ptr noundef nonnull align 1 dereferenceable(1) %5, ptr noundef nonnull align 1 dereferenceable(1) %6) #3
  ret void
}

; Function Attrs: mustprogress nounwind uwtable
define linkonce_odr void @_ZNSt15__new_allocatorIcEC2Ev(ptr noundef nonnull align 1 dereferenceable(1) %0) unnamed_addr #1 comdat align 2 {
  %2 = alloca ptr, align 8
  store ptr %0, ptr %2, align 8, !tbaa !42
  ret void
}

; Function Attrs: mustprogress nounwind uwtable
define linkonce_odr noundef ptr @_ZNSt19__ptr_traits_ptr_toIPccLb0EE10pointer_toERc(ptr noundef nonnull align 1 dereferenceable(1) %0) #1 comdat align 2 {
  %2 = alloca ptr, align 8
  store ptr %0, ptr %2, align 8, !tbaa !35
  %3 = load ptr, ptr %2, align 8, !tbaa !35
  ret ptr %3
}

; Function Attrs: mustprogress uwtable
define available_externally void @_ZNSt7__cxx1112basic_stringIcSt11char_traitsIcESaIcEE13_M_set_lengthEm(ptr noundef nonnull align 8 dereferenceable(32) %0, i64 noundef %1) #2 align 2 {
  %3 = alloca ptr, align 8
  %4 = alloca i64, align 8
  %5 = alloca i8, align 1
  store ptr %0, ptr %3, align 8, !tbaa !40
  store i64 %1, ptr %4, align 8, !tbaa !78
  %6 = load ptr, ptr %3, align 8
  %7 = load i64, ptr %4, align 8, !tbaa !78
  call void @_ZNSt7__cxx1112basic_stringIcSt11char_traitsIcESaIcEE9_M_lengthEm(ptr noundef nonnull align 8 dereferenceable(32) %6, i64 noundef %7)
  %8 = call noundef ptr @_ZNKSt7__cxx1112basic_stringIcSt11char_traitsIcESaIcEE7_M_dataEv(ptr noundef nonnull align 8 dereferenceable(32) %6)
  %9 = load i64, ptr %4, align 8, !tbaa !78
  %10 = getelementptr inbounds nuw i8, ptr %8, i64 %9
  call void @llvm.lifetime.start.p0(i64 1, ptr %5) #3
  store i8 0, ptr %5, align 1, !tbaa !112
  call void @_ZNSt11char_traitsIcE6assignERcRKc(ptr noundef nonnull align 1 dereferenceable(1) %10, ptr noundef nonnull align 1 dereferenceable(1) %5) #3
  call void @llvm.lifetime.end.p0(i64 1, ptr %5) #3
  ret void
}

; Function Attrs: alwaysinline mustprogress nounwind uwtable
define available_externally noundef ptr @_ZNSt7__cxx1112basic_stringIcSt11char_traitsIcESaIcEE17_M_use_local_dataEv(ptr noundef nonnull align 8 dereferenceable(32) %0) #17 align 2 {
  %2 = alloca ptr, align 8
  store ptr %0, ptr %2, align 8, !tbaa !40
  %3 = load ptr, ptr %2, align 8
  %4 = call noundef ptr @_ZNSt7__cxx1112basic_stringIcSt11char_traitsIcESaIcEE13_M_local_dataEv(ptr noundef nonnull align 8 dereferenceable(32) %3)
  ret ptr %4
}

; Function Attrs: mustprogress nounwind uwtable
define linkonce_odr void @_ZNSt15__new_allocatorIcED2Ev(ptr noundef nonnull align 1 dereferenceable(1) %0) unnamed_addr #1 comdat align 2 {
  %2 = alloca ptr, align 8
  store ptr %0, ptr %2, align 8, !tbaa !42
  ret void
}

; Function Attrs: mustprogress nounwind uwtable
define available_externally void @_ZNSt7__cxx1112basic_stringIcSt11char_traitsIcESaIcEE12_Alloc_hiderC2EPcOS3_(ptr noundef nonnull align 8 dereferenceable(8) %0, ptr noundef %1, ptr noundef nonnull align 1 dereferenceable(1) %2) unnamed_addr #1 align 2 {
  %4 = alloca ptr, align 8
  %5 = alloca ptr, align 8
  %6 = alloca ptr, align 8
  store ptr %0, ptr %4, align 8, !tbaa !709
  store ptr %1, ptr %5, align 8, !tbaa !35
  store ptr %2, ptr %6, align 8, !tbaa !38
  %7 = load ptr, ptr %4, align 8
  %8 = load ptr, ptr %6, align 8, !tbaa !38
  call void @_ZNSaIcEC2ERKS_(ptr noundef nonnull align 1 dereferenceable(1) %7, ptr noundef nonnull align 1 dereferenceable(1) %8) #3
  %9 = getelementptr inbounds nuw %"struct.std::__cxx11::basic_string<char>::_Alloc_hider", ptr %7, i32 0, i32 0
  %10 = load ptr, ptr %5, align 8, !tbaa !35
  store ptr %10, ptr %9, align 8, !tbaa !711
  ret void
}

; Function Attrs: mustprogress nounwind uwtable
define available_externally void @_ZNSaIcEC2Ev(ptr noundef nonnull align 1 dereferenceable(1) %0) unnamed_addr #1 align 2 {
  %2 = alloca ptr, align 8
  store ptr %0, ptr %2, align 8, !tbaa !38
  %3 = load ptr, ptr %2, align 8
  call void @_ZNSt15__new_allocatorIcEC2Ev(ptr noundef nonnull align 1 dereferenceable(1) %3) #3
  ret void
}

; Function Attrs: mustprogress nounwind uwtable
define available_externally noundef ptr @_ZNSt7__cxx1112basic_stringIcSt11char_traitsIcESaIcEE13_M_local_dataEv(ptr noundef nonnull align 8 dereferenceable(32) %0) #1 align 2 {
  %2 = alloca ptr, align 8
  store ptr %0, ptr %2, align 8, !tbaa !40
  %3 = load ptr, ptr %2, align 8
  %4 = getelementptr inbounds nuw %"class.std::__cxx11::basic_string", ptr %3, i32 0, i32 2
  %5 = getelementptr inbounds [16 x i8], ptr %4, i64 0, i64 0
  %6 = call noundef ptr @_ZNSt19__ptr_traits_ptr_toIPccLb0EE10pointer_toERc(ptr noundef nonnull align 1 dereferenceable(1) %5) #3
  ret ptr %6
}

; Function Attrs: mustprogress nounwind uwtable
define available_externally void @_ZNSt7__cxx1112basic_stringIcSt11char_traitsIcESaIcEEC2Ev(ptr noundef nonnull align 8 dereferenceable(32) %0) unnamed_addr #1 align 2 personality ptr @__gxx_personality_v0 {
  %2 = alloca ptr, align 8
  %3 = alloca %"class.std::allocator.0", align 1
  store ptr %0, ptr %2, align 8, !tbaa !40
  %4 = load ptr, ptr %2, align 8
  %5 = getelementptr inbounds nuw %"class.std::__cxx11::basic_string", ptr %4, i32 0, i32 0
  %6 = call noundef ptr @_ZNSt7__cxx1112basic_stringIcSt11char_traitsIcESaIcEE13_M_local_dataEv(ptr noundef nonnull align 8 dereferenceable(32) %4)
  call void @llvm.lifetime.start.p0(i64 1, ptr %3) #3
  call void @_ZNSaIcEC2Ev(ptr noundef nonnull align 1 dereferenceable(1) %3) #3
  invoke void @_ZNSt7__cxx1112basic_stringIcSt11char_traitsIcESaIcEE12_Alloc_hiderC2EPcOS3_(ptr noundef nonnull align 8 dereferenceable(8) %5, ptr noundef %6, ptr noundef nonnull align 1 dereferenceable(1) %3)
          to label %7 unwind label %10

7:                                                ; preds = %1
  call void @_ZNSt15__new_allocatorIcED2Ev(ptr noundef nonnull align 1 dereferenceable(1) %3) #3
  call void @llvm.lifetime.end.p0(i64 1, ptr %3) #3
  %8 = call noundef ptr @_ZNSt7__cxx1112basic_stringIcSt11char_traitsIcESaIcEE17_M_use_local_dataEv(ptr noundef nonnull align 8 dereferenceable(32) %4) #3
  invoke void @_ZNSt7__cxx1112basic_stringIcSt11char_traitsIcESaIcEE13_M_set_lengthEm(ptr noundef nonnull align 8 dereferenceable(32) %4, i64 noundef 0)
          to label %9 unwind label %10

9:                                                ; preds = %7
  ret void

10:                                               ; preds = %7, %1
  %11 = landingpad { ptr, i32 }
          catch ptr null
  %12 = extractvalue { ptr, i32 } %11, 0
  call void @__clang_call_terminate(ptr %12) #21
  unreachable
}

; Function Attrs: mustprogress nounwind uwtable
define linkonce_odr void @_ZNSt9exceptionC2Ev(ptr noundef nonnull align 8 dereferenceable(8) %0) unnamed_addr #1 comdat align 2 {
  %2 = alloca ptr, align 8
  store ptr %0, ptr %2, align 8, !tbaa !737
  %3 = load ptr, ptr %2, align 8
  store ptr getelementptr inbounds inrange(-16, 24) ({ [5 x ptr] }, ptr @_ZTVSt9exception, i32 0, i32 0, i32 2), ptr %3, align 8, !tbaa !36
  ret void
}

; Function Attrs: mustprogress nounwind uwtable
define linkonce_odr void @_ZN13duckdb_apache6thrift10TExceptionC2Ev(ptr noundef nonnull align 8 dereferenceable(40) %0) unnamed_addr #1 comdat align 2 {
  %2 = alloca ptr, align 8
  store ptr %0, ptr %2, align 8, !tbaa !166
  %3 = load ptr, ptr %2, align 8
  call void @_ZNSt9exceptionC2Ev(ptr noundef nonnull align 8 dereferenceable(8) %3) #3
  store ptr getelementptr inbounds inrange(-16, 24) ({ [5 x ptr] }, ptr @_ZTVN13duckdb_apache6thrift10TExceptionE, i32 0, i32 0, i32 2), ptr %3, align 8, !tbaa !36
  %4 = getelementptr inbounds nuw %"class.duckdb_apache::thrift::TException", ptr %3, i32 0, i32 1
  call void @_ZNSt7__cxx1112basic_stringIcSt11char_traitsIcESaIcEEC2Ev(ptr noundef nonnull align 8 dereferenceable(32) %4) #3
  ret void
}

; Function Attrs: mustprogress uwtable
define linkonce_odr void @_ZN13duckdb_apache6thrift8protocol18TProtocolExceptionC2ENS2_22TProtocolExceptionTypeE(ptr noundef nonnull align 8 dereferenceable(44) %0, i32 noundef %1) unnamed_addr #2 comdat align 2 {
  %3 = alloca ptr, align 8
  %4 = alloca i32, align 4
  store ptr %0, ptr %3, align 8, !tbaa !158
  store i32 %1, ptr %4, align 4, !tbaa !160
  %5 = load ptr, ptr %3, align 8
  call void @_ZN13duckdb_apache6thrift10TExceptionC2Ev(ptr noundef nonnull align 8 dereferenceable(40) %5)
  store ptr getelementptr inbounds inrange(-16, 24) ({ [5 x ptr] }, ptr @_ZTVN13duckdb_apache6thrift8protocol18TProtocolExceptionE, i32 0, i32 0, i32 2), ptr %5, align 8, !tbaa !36
  %6 = getelementptr inbounds nuw %"class.duckdb_apache::thrift::protocol::TProtocolException", ptr %5, i32 0, i32 1
  %7 = load i32, ptr %4, align 4, !tbaa !160
  store i32 %7, ptr %6, align 8, !tbaa !162
  ret void
}

; Function Attrs: noinline noreturn nounwind uwtable
define linkonce_odr hidden void @__clang_call_terminate(ptr noundef %0) #10 comdat {
  %2 = call ptr @__cxa_begin_catch(ptr %0) #3
  call void @_ZSt9terminatev() #21
  unreachable
}

; Function Attrs: mustprogress nounwind uwtable
define linkonce_odr void @_ZN13duckdb_apache6thrift8protocol9TProtocol29decrementOutputRecursionDepthEv(ptr noundef nonnull align 8 dereferenceable(36) %0) #1 comdat align 2 {
  %2 = alloca ptr, align 8
  store ptr %0, ptr %2, align 8, !tbaa !79
  %3 = load ptr, ptr %2, align 8
  %4 = getelementptr inbounds nuw %"class.duckdb_apache::thrift::protocol::TProtocol", ptr %3, i32 0, i32 3
  %5 = load i32, ptr %4, align 4, !tbaa !736
  %6 = add i32 %5, -1
  store i32 %6, ptr %4, align 4, !tbaa !736
  ret void
}

; Function Attrs: mustprogress uwtable
define linkonce_odr void @_ZN13duckdb_apache6thrift8protocol9TProtocol29incrementOutputRecursionDepthEv(ptr noundef nonnull align 8 dereferenceable(36) %0) #2 comdat align 2 personality ptr @__gxx_personality_v0 {
  %2 = alloca ptr, align 8
  %3 = alloca ptr, align 8
  %4 = alloca i32, align 4
  store ptr %0, ptr %2, align 8, !tbaa !79
  %5 = load ptr, ptr %2, align 8
  %6 = getelementptr inbounds nuw %"class.duckdb_apache::thrift::protocol::TProtocol", ptr %5, i32 0, i32 4
  %7 = load i32, ptr %6, align 8, !tbaa !728
  %8 = getelementptr inbounds nuw %"class.duckdb_apache::thrift::protocol::TProtocol", ptr %5, i32 0, i32 3
  %9 = load i32, ptr %8, align 4, !tbaa !736
  %10 = add i32 %9, 1
  store i32 %10, ptr %8, align 4, !tbaa !736
  %11 = icmp ult i32 %7, %10
  br i1 %11, label %12, label %19

12:                                               ; preds = %1
  %13 = call ptr @__cxa_allocate_exception(i64 48) #3
  invoke void @_ZN13duckdb_apache6thrift8protocol18TProtocolExceptionC2ENS2_22TProtocolExceptionTypeE(ptr noundef nonnull align 8 dereferenceable(44) %13, i32 noundef 6)
          to label %14 unwind label %15

14:                                               ; preds = %12
  call void @__cxa_throw(ptr %13, ptr @_ZTIN13duckdb_apache6thrift8protocol18TProtocolExceptionE, ptr @_ZN13duckdb_apache6thrift10TExceptionD2Ev) #20
  unreachable

15:                                               ; preds = %12
  %16 = landingpad { ptr, i32 }
          cleanup
  %17 = extractvalue { ptr, i32 } %16, 0
  store ptr %17, ptr %3, align 8
  %18 = extractvalue { ptr, i32 } %16, 1
  store i32 %18, ptr %4, align 4
  call void @__cxa_free_exception(ptr %13) #3
  br label %20

19:                                               ; preds = %1
  ret void

20:                                               ; preds = %15
  %21 = load ptr, ptr %3, align 8
  %22 = load i32, ptr %4, align 4
  %23 = insertvalue { ptr, i32 } poison, ptr %21, 0
  %24 = insertvalue { ptr, i32 } %23, i32 %22, 1
  resume { ptr, i32 } %24
}

; Function Attrs: mustprogress nounwind uwtable
define linkonce_odr void @_ZN13duckdb_apache6thrift8protocol23TOutputRecursionTrackerD2Ev(ptr noundef nonnull align 8 dereferenceable(8) %0) unnamed_addr #1 comdat align 2 personality ptr @__gxx_personality_v0 {
  %2 = alloca ptr, align 8
  store ptr %0, ptr %2, align 8, !tbaa !102
  %3 = load ptr, ptr %2, align 8
  %4 = getelementptr inbounds nuw %"struct.duckdb_apache::thrift::protocol::TOutputRecursionTracker", ptr %3, i32 0, i32 0
  %5 = load ptr, ptr %4, align 8, !tbaa !104
  invoke void @_ZN13duckdb_apache6thrift8protocol9TProtocol29decrementOutputRecursionDepthEv(ptr noundef nonnull align 8 dereferenceable(36) %5)
          to label %6 unwind label %7

6:                                                ; preds = %1
  ret void

7:                                                ; preds = %1
  %8 = landingpad { ptr, i32 }
          catch ptr null
  %9 = extractvalue { ptr, i32 } %8, 0
  call void @__clang_call_terminate(ptr %9) #21
  unreachable
}

; Function Attrs: mustprogress uwtable
define linkonce_odr noundef i32 @_ZN13duckdb_apache6thrift8protocol9TProtocol14writeStructEndEv(ptr noundef nonnull align 8 dereferenceable(36) %0) #2 comdat align 2 {
  %2 = alloca ptr, align 8
  store ptr %0, ptr %2, align 8, !tbaa !79
  %3 = load ptr, ptr %2, align 8
  %4 = load ptr, ptr %3, align 8, !tbaa !36
  %5 = getelementptr inbounds ptr, ptr %4, i64 5
  %6 = load ptr, ptr %5, align 8
  %7 = call noundef i32 %6(ptr noundef nonnull align 8 dereferenceable(36) %3)
  ret i32 %7
}

; Function Attrs: mustprogress uwtable
define linkonce_odr noundef i32 @_ZN13duckdb_apache6thrift8protocol9TProtocol14writeFieldStopEv(ptr noundef nonnull align 8 dereferenceable(36) %0) #2 comdat align 2 {
  %2 = alloca ptr, align 8
  store ptr %0, ptr %2, align 8, !tbaa !79
  %3 = load ptr, ptr %2, align 8
  %4 = load ptr, ptr %3, align 8, !tbaa !36
  %5 = getelementptr inbounds ptr, ptr %4, i64 8
  %6 = load ptr, ptr %5, align 8
  %7 = call noundef i32 %6(ptr noundef nonnull align 8 dereferenceable(36) %3)
  ret i32 %7
}

; Function Attrs: mustprogress uwtable
define linkonce_odr noundef i32 @_ZN13duckdb_apache6thrift8protocol9TProtocol16writeStructBeginEPKc(ptr noundef nonnull align 8 dereferenceable(36) %0, ptr noundef %1) #2 comdat align 2 {
  %3 = alloca ptr, align 8
  %4 = alloca ptr, align 8
  store ptr %0, ptr %3, align 8, !tbaa !79
  store ptr %1, ptr %4, align 8, !tbaa !35
  %5 = load ptr, ptr %3, align 8
  %6 = load ptr, ptr %4, align 8, !tbaa !35
  %7 = load ptr, ptr %5, align 8, !tbaa !36
  %8 = getelementptr inbounds ptr, ptr %7, i64 4
  %9 = load ptr, ptr %8, align 8
  %10 = call noundef i32 %9(ptr noundef nonnull align 8 dereferenceable(36) %5, ptr noundef %6)
  ret i32 %10
}

; Function Attrs: mustprogress uwtable
define linkonce_odr void @_ZN13duckdb_apache6thrift8protocol23TOutputRecursionTrackerC2ERNS1_9TProtocolE(ptr noundef nonnull align 8 dereferenceable(8) %0, ptr noundef nonnull align 8 dereferenceable(36) %1) unnamed_addr #2 comdat align 2 {
  %3 = alloca ptr, align 8
  %4 = alloca ptr, align 8
  store ptr %0, ptr %3, align 8, !tbaa !102
  store ptr %1, ptr %4, align 8, !tbaa !79
  %5 = load ptr, ptr %3, align 8
  %6 = getelementptr inbounds nuw %"struct.duckdb_apache::thrift::protocol::TOutputRecursionTracker", ptr %5, i32 0, i32 0
  %7 = load ptr, ptr %4, align 8, !tbaa !79
  store ptr %7, ptr %6, align 8, !tbaa !79
  %8 = getelementptr inbounds nuw %"struct.duckdb_apache::thrift::protocol::TOutputRecursionTracker", ptr %5, i32 0, i32 0
  %9 = load ptr, ptr %8, align 8, !tbaa !104
  call void @_ZN13duckdb_apache6thrift8protocol9TProtocol29incrementOutputRecursionDepthEv(ptr noundef nonnull align 8 dereferenceable(36) %9)
  ret void
}

; Function Attrs: mustprogress uwtable
define noundef i32 @_ZNK14duckdb_parquet8UUIDType5writeEPN13duckdb_apache6thrift8protocol9TProtocolE(ptr noundef nonnull align 8 dereferenceable(8) %0, ptr noundef %1) unnamed_addr #2 align 2 personality ptr @__gxx_personality_v0 {
  %3 = alloca ptr, align 8
  %4 = alloca ptr, align 8
  %5 = alloca i32, align 4
  %6 = alloca %"struct.duckdb_apache::thrift::protocol::TOutputRecursionTracker", align 8
  %7 = alloca ptr, align 8
  %8 = alloca i32, align 4
  store ptr %0, ptr %3, align 8, !tbaa !131
  store ptr %1, ptr %4, align 8, !tbaa !79
  call void @llvm.lifetime.start.p0(i64 4, ptr %5) #3
  store i32 0, ptr %5, align 4, !tbaa !8
  call void @llvm.lifetime.start.p0(i64 8, ptr %6) #3
  %9 = load ptr, ptr %4, align 8, !tbaa !79
  call void @_ZN13duckdb_apache6thrift8protocol23TOutputRecursionTrackerC2ERNS1_9TProtocolE(ptr noundef nonnull align 8 dereferenceable(8) %6, ptr noundef nonnull align 8 dereferenceable(36) %9)
  %10 = load ptr, ptr %4, align 8, !tbaa !79
  %11 = invoke noundef i32 @_ZN13duckdb_apache6thrift8protocol9TProtocol16writeStructBeginEPKc(ptr noundef nonnull align 8 dereferenceable(36) %10, ptr noundef @.str.94)
          to label %12 unwind label %26

12:                                               ; preds = %2
  %13 = load i32, ptr %5, align 4, !tbaa !8
  %14 = add i32 %13, %11
  store i32 %14, ptr %5, align 4, !tbaa !8
  %15 = load ptr, ptr %4, align 8, !tbaa !79
  %16 = invoke noundef i32 @_ZN13duckdb_apache6thrift8protocol9TProtocol14writeFieldStopEv(ptr noundef nonnull align 8 dereferenceable(36) %15)
          to label %17 unwind label %26

17:                                               ; preds = %12
  %18 = load i32, ptr %5, align 4, !tbaa !8
  %19 = add i32 %18, %16
  store i32 %19, ptr %5, align 4, !tbaa !8
  %20 = load ptr, ptr %4, align 8, !tbaa !79
  %21 = invoke noundef i32 @_ZN13duckdb_apache6thrift8protocol9TProtocol14writeStructEndEv(ptr noundef nonnull align 8 dereferenceable(36) %20)
          to label %22 unwind label %26

22:                                               ; preds = %17
  %23 = load i32, ptr %5, align 4, !tbaa !8
  %24 = add i32 %23, %21
  store i32 %24, ptr %5, align 4, !tbaa !8
  %25 = load i32, ptr %5, align 4, !tbaa !8
  call void @_ZN13duckdb_apache6thrift8protocol23TOutputRecursionTrackerD2Ev(ptr noundef nonnull align 8 dereferenceable(8) %6) #3
  call void @llvm.lifetime.end.p0(i64 8, ptr %6) #3
  call void @llvm.lifetime.end.p0(i64 4, ptr %5) #3
  ret i32 %25

26:                                               ; preds = %17, %12, %2
  %27 = landingpad { ptr, i32 }
          cleanup
  %28 = extractvalue { ptr, i32 } %27, 0
  store ptr %28, ptr %7, align 8
  %29 = extractvalue { ptr, i32 } %27, 1
  store i32 %29, ptr %8, align 4
  call void @_ZN13duckdb_apache6thrift8protocol23TOutputRecursionTrackerD2Ev(ptr noundef nonnull align 8 dereferenceable(8) %6) #3
  call void @llvm.lifetime.end.p0(i64 8, ptr %6) #3
  call void @llvm.lifetime.end.p0(i64 4, ptr %5) #3
  br label %30

30:                                               ; preds = %26
  %31 = load ptr, ptr %7, align 8
  %32 = load i32, ptr %8, align 4
  %33 = insertvalue { ptr, i32 } poison, ptr %31, 0
  %34 = insertvalue { ptr, i32 } %33, i32 %32, 1
  resume { ptr, i32 } %34
}